; Function Attrs: mustprogress uwtable
define hidden noundef zeroext i1 @_ZNK19OpenColorIO_v2_4dev20GradingPrimaryOpData6equalsERKNS_6OpDataE(ptr noundef nonnull align 8 dereferenceable(192) %this, ptr noundef nonnull align 8 dereferenceable(168) %other) unnamed_addr #3 align 2 {
entry:
  %call = tail call noundef zeroext i1 @_ZNK19OpenColorIO_v2_4dev6OpData6equalsERKS0_(ptr noundef nonnull align 8 dereferenceable(168) %this, ptr noundef nonnull align 8 dereferenceable(168) %other)
  br i1 %call, label %if.end, label %return

if.end:                                           ; preds = %entry
  %m_style = getelementptr inbounds i8, ptr %this, i64 168
  %0 = load i32, ptr %m_style, align 8
  %m_style2 = getelementptr inbounds i8, ptr %other, i64 168
  %1 = load i32, ptr %m_style2, align 8
  %cmp.not = icmp eq i32 %0, %1
  br i1 %cmp.not, label %lor.lhs.false, label %return

lor.lhs.false:                                    ; preds = %if.end
  %m_value = getelementptr inbounds i8, ptr %this, i64 176
  %2 = load ptr, ptr %m_value, align 8
  %m_direction.i = getelementptr inbounds i8, ptr %2, i64 28
  %3 = load i32, ptr %m_direction.i, align 4
  %m_value.i = getelementptr inbounds i8, ptr %other, i64 176
  %4 = load ptr, ptr %m_value.i, align 8
  %m_direction.i.i = getelementptr inbounds i8, ptr %4, i64 28
  %5 = load i32, ptr %m_direction.i.i, align 4
  %cmp6.not = icmp eq i32 %3, %5
  br i1 %cmp6.not, label %lor.lhs.false7, label %return

lor.lhs.false7:                                   ; preds = %lor.lhs.false
  %call12 = tail call noundef zeroext i1 @_ZNK19OpenColorIO_v2_4dev19DynamicPropertyImpl6equalsERKS0_(ptr noundef nonnull align 8 dereferenceable(13) %2, ptr noundef nonnull align 8 dereferenceable(13) %4)
  br label %return

return:                                           ; preds = %lor.lhs.false7, %if.end, %lor.lhs.false, %entry
  %retval.0 = phi i1 [ false, %entry ], [ false, %lor.lhs.false ], [ false, %if.end ], [ %call12, %lor.lhs.false7 ]
  ret i1 %retval.0
}